; Function Attrs: nounwind uwtable
define noalias noundef ptr @Gia_ManComputeSharing(ptr noundef readonly captures(none) %0) local_unnamed_addr #2 {
  %2 = getelementptr i8, ptr %0, i64 4
  %.val15 = load i32, ptr %2, align 4
  %3 = tail call noalias dereferenceable_or_null(16) ptr @malloc(i64 noundef 16) #40
  %4 = add i32 %.val15, -1
  %or.cond.i.i = icmp ult i32 %4, 7
  %spec.store.select.i.i = select i1 %or.cond.i.i, i32 8, i32 %.val15
  store i32 %spec.store.select.i.i, ptr %3, align 8
  %.not.i.i = icmp eq i32 %spec.store.select.i.i, 0
  br i1 %.not.i.i, label %Vec_WecStart.exit, label %5

5:                                                ; preds = %1
  %6 = sext i32 %spec.store.select.i.i to i64
  %7 = tail call noalias ptr @calloc(i64 noundef %6, i64 noundef 16) #38
  br label %Vec_WecStart.exit

Vec_WecStart.exit:                                ; preds = %1, %5
  %8 = phi ptr [ %7, %5 ], [ null, %1 ]
  %9 = getelementptr inbounds nuw i8, ptr %3, i64 4
  %10 = getelementptr inbounds nuw i8, ptr %3, i64 8
  store ptr %8, ptr %10, align 8
  store i32 %.val15, ptr %9, align 4
  %11 = icmp sgt i32 %.val15, 0
  br i1 %11, label %.lr.ph, label %.critedge

.lr.ph:                                           ; preds = %Vec_WecStart.exit
  %12 = getelementptr i8, ptr %0, i64 8
  br label %13

13:                                               ; preds = %.lr.ph, %Vec_IntTwoFindCommon.exit
  %.val1624 = phi i32 [ %.val15, %.lr.ph ], [ %.val16, %Vec_IntTwoFindCommon.exit ]
  %indvars.iv = phi i64 [ 0, %.lr.ph ], [ %indvars.iv.next, %Vec_IntTwoFindCommon.exit ]
  %.val14 = load ptr, ptr %10, align 8
  %14 = getelementptr inbounds nuw %struct.Vec_Int_t_, ptr %.val14, i64 %indvars.iv
  %.not = icmp eq i64 %indvars.iv, 0
  br i1 %.not, label %Vec_IntTwoFindCommon.exit, label %15

15:                                               ; preds = %13
  %.val13 = load ptr, ptr %12, align 8
  %16 = getelementptr %struct.Vec_Int_t_, ptr %.val13, i64 %indvars.iv
  %17 = getelementptr i8, ptr %16, i64 -12
  %.val17 = load i32, ptr %17, align 4
  %18 = getelementptr i8, ptr %16, i64 -8
  %.val18 = load ptr, ptr %18, align 8
  %19 = getelementptr i8, ptr %16, i64 4
  %.val19 = load i32, ptr %19, align 4
  %20 = getelementptr i8, ptr %16, i64 8
  %.val20 = load ptr, ptr %20, align 8
  %21 = sext i32 %.val17 to i64
  %22 = getelementptr inbounds i32, ptr %.val18, i64 %21
  %23 = sext i32 %.val19 to i64
  %24 = getelementptr inbounds i32, ptr %.val20, i64 %23
  %25 = getelementptr inbounds nuw i8, ptr %14, i64 4
  store i32 0, ptr %25, align 4
  %26 = icmp sgt i32 %.val17, 0
  %27 = icmp sgt i32 %.val19, 0
  %28 = select i1 %26, i1 %27, i1 false
  br i1 %28, label %.lr.ph.i, label %Vec_IntTwoFindCommon.exit

.lr.ph.i:                                         ; preds = %15
  %.phi.trans.insert.i.i = getelementptr inbounds nuw i8, ptr %14, i64 8
  br label %29

29:                                               ; preds = %70, %.lr.ph.i
  %.06.i = phi ptr [ %.val18, %.lr.ph.i ], [ %.1.i, %70 ]
  %.0225.i = phi ptr [ %.val20, %.lr.ph.i ], [ %.123.i, %70 ]
  %30 = load i32, ptr %.06.i, align 4
  %31 = load i32, ptr %.0225.i, align 4
  %32 = icmp eq i32 %30, %31
  br i1 %32, label %33, label %64

33:                                               ; preds = %29
  %34 = load i32, ptr %25, align 4
  %35 = load i32, ptr %14, align 8
  %36 = icmp eq i32 %34, %35
  br i1 %36, label %37, label %.Vec_IntGrow.exit10_crit_edge.i.i

.Vec_IntGrow.exit10_crit_edge.i.i:                ; preds = %33
  %.pre.i.i = load ptr, ptr %.phi.trans.insert.i.i, align 8
  br label %Vec_IntPush.exit.i

37:                                               ; preds = %33
  %38 = icmp slt i32 %34, 16
  br i1 %38, label %39, label %46

39:                                               ; preds = %37
  %40 = load ptr, ptr %.phi.trans.insert.i.i, align 8
  %.not9.i.i.i = icmp eq ptr %40, null
  br i1 %.not9.i.i.i, label %43, label %41

41:                                               ; preds = %39
  %42 = tail call dereferenceable_or_null(64) ptr @realloc(ptr noundef nonnull %40, i64 noundef 64) #39
  br label %Vec_IntGrow.exit.i.i

43:                                               ; preds = %39
  %44 = tail call noalias dereferenceable_or_null(64) ptr @malloc(i64 noundef 64) #40
  br label %Vec_IntGrow.exit.i.i

Vec_IntGrow.exit.i.i:                             ; preds = %43, %41
  %45 = phi ptr [ %42, %41 ], [ %44, %43 ]
  store ptr %45, ptr %.phi.trans.insert.i.i, align 8
  store i32 16, ptr %14, align 8
  br label %Vec_IntPush.exit.i

46:                                               ; preds = %37
  %47 = shl nuw nsw i32 %34, 1
  %48 = load ptr, ptr %.phi.trans.insert.i.i, align 8
  %.not9.i9.i.i = icmp eq ptr %48, null
  %49 = zext nneg i32 %47 to i64
  %50 = shl nuw nsw i64 %49, 2
  br i1 %.not9.i9.i.i, label %53, label %51

51:                                               ; preds = %46
  %52 = tail call ptr @realloc(ptr noundef nonnull %48, i64 noundef %50) #39
  br label %55

53:                                               ; preds = %46
  %54 = tail call noalias ptr @malloc(i64 noundef %50) #40
  br label %55

55:                                               ; preds = %53, %51
  %56 = phi ptr [ %52, %51 ], [ %54, %53 ]
  store ptr %56, ptr %.phi.trans.insert.i.i, align 8
  store i32 %47, ptr %14, align 8
  br label %Vec_IntPush.exit.i

Vec_IntPush.exit.i:                               ; preds = %55, %Vec_IntGrow.exit.i.i, %.Vec_IntGrow.exit10_crit_edge.i.i
  %57 = phi ptr [ %.pre.i.i, %.Vec_IntGrow.exit10_crit_edge.i.i ], [ %56, %55 ], [ %45, %Vec_IntGrow.exit.i.i ]
  %58 = load i32, ptr %25, align 4
  %59 = add nsw i32 %58, 1
  store i32 %59, ptr %25, align 4
  %60 = sext i32 %58 to i64
  %61 = getelementptr inbounds i32, ptr %57, i64 %60
  store i32 %30, ptr %61, align 4
  %62 = getelementptr inbounds nuw i8, ptr %.06.i, i64 4
  %63 = getelementptr inbounds nuw i8, ptr %.0225.i, i64 4
  br label %70

64:                                               ; preds = %29
  %65 = icmp slt i32 %30, %31
  br i1 %65, label %66, label %68

66:                                               ; preds = %64
  %67 = getelementptr inbounds nuw i8, ptr %.06.i, i64 4
  br label %70

68:                                               ; preds = %64
  %69 = getelementptr inbounds nuw i8, ptr %.0225.i, i64 4
  br label %70

70:                                               ; preds = %68, %66, %Vec_IntPush.exit.i
  %.123.i = phi ptr [ %63, %Vec_IntPush.exit.i ], [ %.0225.i, %66 ], [ %69, %68 ]
  %.1.i = phi ptr [ %62, %Vec_IntPush.exit.i ], [ %67, %66 ], [ %.06.i, %68 ]
  %71 = icmp ult ptr %.1.i, %22
  %72 = icmp ult ptr %.123.i, %24
  %73 = select i1 %71, i1 %72, i1 false
  br i1 %73, label %29, label %Vec_IntTwoFindCommon.exit.loopexit, !llvm.loop !137

Vec_IntTwoFindCommon.exit.loopexit:               ; preds = %70
  %.val16.pre = load i32, ptr %9, align 4
  br label %Vec_IntTwoFindCommon.exit

Vec_IntTwoFindCommon.exit:                        ; preds = %Vec_IntTwoFindCommon.exit.loopexit, %15, %13
  %.val16 = phi i32 [ %.val16.pre, %Vec_IntTwoFindCommon.exit.loopexit ], [ %.val1624, %15 ], [ %.val1624, %13 ]
  %indvars.iv.next = add nuw nsw i64 %indvars.iv, 1
  %74 = sext i32 %.val16 to i64
  %75 = icmp slt i64 %indvars.iv.next, %74
  br i1 %75, label %13, label %.critedge, !llvm.loop !138

.critedge:                                        ; preds = %Vec_IntTwoFindCommon.exit, %Vec_WecStart.exit
  ret ptr %3
}